target datalayout = "e-m:e-p270:32:32-p271:32:32-p272:64:64-i64:64-i128:128-f80:128-n8:16:32:64-S128"
target triple = "x86_64-pc-linux-gnu"

%struct.SANMVideoContext = type { ptr, %struct.GetByteContext, i32, i32, i32, i32, [256 x i32], [768 x i16], i64, i32, i32, i32, i32, i32, ptr, ptr, ptr, ptr, ptr, ptr, i32, i32, i32, i32, i32, ptr, i32, i32, i64, i64, [256 x i16], [4 x i16], [256 x [16 x i8]], [256 x [64 x i8]], [65536 x i8], [256 x i8], [2 x [256 x [16 x i8]]], i16 }
%struct.GetByteContext = type { ptr, ptr, ptr }

@.str.30 = private unnamed_addr constant [31 x i8] c"RLE buffer allocation failed.\0A\00", align 1

; Function Attrs: alwaysinline nounwind uwtable
define internal i32 @bytestream_get_byte(ptr noundef %0) #4 {
  %2 = alloca ptr, align 8
  store ptr %0, ptr %2, align 8, !tbaa !119
  %3 = load ptr, ptr %2, align 8, !tbaa !119
  %4 = load ptr, ptr %3, align 8, !tbaa !63
  %5 = getelementptr inbounds i8, ptr %4, i64 1
  store ptr %5, ptr %3, align 8, !tbaa !63
  %6 = load ptr, ptr %2, align 8, !tbaa !119
  %7 = load ptr, ptr %6, align 8, !tbaa !63
  %8 = getelementptr inbounds i8, ptr %7, i64 -1
  %9 = getelementptr inbounds i8, ptr %8, i64 0
  %10 = load i8, ptr %9, align 1, !tbaa !42
  %11 = zext i8 %10 to i32
  ret i32 %11
}

; Function Attrs: alwaysinline nounwind uwtable
define internal i32 @bytestream2_get_byteu(ptr noundef %0) #4 {
  %2 = alloca ptr, align 8
  store ptr %0, ptr %2, align 8, !tbaa !96
  %3 = load ptr, ptr %2, align 8, !tbaa !96
  %4 = getelementptr inbounds nuw %struct.GetByteContext, ptr %3, i32 0, i32 0
  %5 = call i32 @bytestream_get_byte(ptr noundef %4)
  ret i32 %5
}

; Function Attrs: alwaysinline nounwind uwtable
define internal i32 @bytestream2_get_bufferu(ptr noundef %0, ptr noundef %1, i32 noundef %2) #4 {
  %4 = alloca ptr, align 8
  %5 = alloca ptr, align 8
  %6 = alloca i32, align 4
  store ptr %0, ptr %4, align 8, !tbaa !96
  store ptr %1, ptr %5, align 8, !tbaa !63
  store i32 %2, ptr %6, align 4, !tbaa !44
  %7 = load ptr, ptr %5, align 8, !tbaa !63
  %8 = load ptr, ptr %4, align 8, !tbaa !96
  %9 = getelementptr inbounds nuw %struct.GetByteContext, ptr %8, i32 0, i32 0
  %10 = load ptr, ptr %9, align 8, !tbaa !98
  %11 = load i32, ptr %6, align 4, !tbaa !44
  %12 = zext i32 %11 to i64
  call void @llvm.memcpy.p0.p0.i64(ptr align 1 %7, ptr align 1 %10, i64 %12, i1 false)
  %13 = load i32, ptr %6, align 4, !tbaa !44
  %14 = load ptr, ptr %4, align 8, !tbaa !96
  %15 = getelementptr inbounds nuw %struct.GetByteContext, ptr %14, i32 0, i32 0
  %16 = load ptr, ptr %15, align 8, !tbaa !98
  %17 = zext i32 %13 to i64
  %18 = getelementptr inbounds nuw i8, ptr %16, i64 %17
  store ptr %18, ptr %15, align 8, !tbaa !98
  %19 = load i32, ptr %6, align 4, !tbaa !44
  ret i32 %19
}

; Function Attrs: alwaysinline nounwind uwtable
define internal i32 @bytestream2_get_bytes_left(ptr noundef %0) #4 {
  %2 = alloca ptr, align 8
  store ptr %0, ptr %2, align 8, !tbaa !96
  %3 = load ptr, ptr %2, align 8, !tbaa !96
  %4 = getelementptr inbounds nuw %struct.GetByteContext, ptr %3, i32 0, i32 1
  %5 = load ptr, ptr %4, align 8, !tbaa !100
  %6 = load ptr, ptr %2, align 8, !tbaa !96
  %7 = getelementptr inbounds nuw %struct.GetByteContext, ptr %6, i32 0, i32 0
  %8 = load ptr, ptr %7, align 8, !tbaa !98
  %9 = ptrtoint ptr %5 to i64
  %10 = ptrtoint ptr %8 to i64
  %11 = sub i64 %9, %10
  %12 = trunc i64 %11 to i32
  ret i32 %12
}

; Function Attrs: alwaysinline nounwind uwtable
define internal i32 @bytestream2_get_byte(ptr noundef %0) #4 {
  %2 = alloca i32, align 4
  %3 = alloca ptr, align 8
  store ptr %0, ptr %3, align 8, !tbaa !96
  %4 = load ptr, ptr %3, align 8, !tbaa !96
  %5 = getelementptr inbounds nuw %struct.GetByteContext, ptr %4, i32 0, i32 1
  %6 = load ptr, ptr %5, align 8, !tbaa !100
  %7 = load ptr, ptr %3, align 8, !tbaa !96
  %8 = getelementptr inbounds nuw %struct.GetByteContext, ptr %7, i32 0, i32 0
  %9 = load ptr, ptr %8, align 8, !tbaa !98
  %10 = ptrtoint ptr %6 to i64
  %11 = ptrtoint ptr %9 to i64
  %12 = sub i64 %10, %11
  %13 = icmp slt i64 %12, 1
  br i1 %13, label %14, label %20

14:                                               ; preds = %1
  %15 = load ptr, ptr %3, align 8, !tbaa !96
  %16 = getelementptr inbounds nuw %struct.GetByteContext, ptr %15, i32 0, i32 1
  %17 = load ptr, ptr %16, align 8, !tbaa !100
  %18 = load ptr, ptr %3, align 8, !tbaa !96
  %19 = getelementptr inbounds nuw %struct.GetByteContext, ptr %18, i32 0, i32 0
  store ptr %17, ptr %19, align 8, !tbaa !98
  store i32 0, ptr %2, align 4
  br label %23

20:                                               ; preds = %1
  %21 = load ptr, ptr %3, align 8, !tbaa !96
  %22 = call i32 @bytestream2_get_byteu(ptr noundef %21)
  store i32 %22, ptr %2, align 4
  br label %23

23:                                               ; preds = %20, %14
  %24 = load i32, ptr %2, align 4
  ret i32 %24
}

; Function Attrs: nounwind uwtable
define internal i32 @rle_decode(ptr noundef %0, ptr noundef %1, ptr noundef %2, i32 noundef %3) #1 {
  %5 = alloca i32, align 4
  %6 = alloca ptr, align 8
  %7 = alloca ptr, align 8
  %8 = alloca ptr, align 8
  %9 = alloca i32, align 4
  %10 = alloca i32, align 4
  %11 = alloca i32, align 4
  %12 = alloca i32, align 4
  %13 = alloca i32, align 4
  %14 = alloca i32, align 4
  store ptr %0, ptr %6, align 8, !tbaa !29
  store ptr %1, ptr %7, align 8, !tbaa !96
  store ptr %2, ptr %8, align 8, !tbaa !63
  store i32 %3, ptr %9, align 4, !tbaa !44
  call void @llvm.lifetime.start.p0(i64 4, ptr %10) #10
  call void @llvm.lifetime.start.p0(i64 4, ptr %11) #10
  call void @llvm.lifetime.start.p0(i64 4, ptr %12) #10
  call void @llvm.lifetime.start.p0(i64 4, ptr %13) #10
  %15 = load i32, ptr %9, align 4, !tbaa !44
  store i32 %15, ptr %13, align 4, !tbaa !44
  br label %16

16:                                               ; preds = %56, %4
  %17 = load i32, ptr %13, align 4, !tbaa !44
  %18 = icmp sgt i32 %17, 0
  br i1 %18, label %19, label %64

19:                                               ; preds = %16
  %20 = load ptr, ptr %7, align 8, !tbaa !96
  %21 = call i32 @bytestream2_get_byte(ptr noundef %20)
  store i32 %21, ptr %10, align 4, !tbaa !44
  %22 = load i32, ptr %10, align 4, !tbaa !44
  %23 = ashr i32 %22, 1
  %24 = add nsw i32 %23, 1
  store i32 %24, ptr %12, align 4, !tbaa !44
  %25 = load i32, ptr %12, align 4, !tbaa !44
  %26 = load i32, ptr %13, align 4, !tbaa !44
  %27 = icmp sgt i32 %25, %26
  br i1 %27, label %32, label %28

28:                                               ; preds = %19
  %29 = load ptr, ptr %7, align 8, !tbaa !96
  %30 = call i32 @bytestream2_get_bytes_left(ptr noundef %29)
  %31 = icmp sle i32 %30, 0
  br i1 %31, label %32, label %33

32:                                               ; preds = %28, %19
  store i32 -1094995529, ptr %5, align 4
  store i32 1, ptr %14, align 4
  br label %65

33:                                               ; preds = %28
  %34 = load i32, ptr %10, align 4, !tbaa !44
  %35 = and i32 %34, 1
  %36 = icmp ne i32 %35, 0
  br i1 %36, label %37, label %45

37:                                               ; preds = %33
  %38 = load ptr, ptr %7, align 8, !tbaa !96
  %39 = call i32 @bytestream2_get_byte(ptr noundef %38)
  store i32 %39, ptr %11, align 4, !tbaa !44
  %40 = load ptr, ptr %8, align 8, !tbaa !63
  %41 = load i32, ptr %11, align 4, !tbaa !44
  %42 = trunc i32 %41 to i8
  %43 = load i32, ptr %12, align 4, !tbaa !44
  %44 = sext i32 %43 to i64
  call void @llvm.memset.p0.i64(ptr align 1 %40, i8 %42, i64 %44, i1 false)
  br label %56

45:                                               ; preds = %33
  %46 = load ptr, ptr %7, align 8, !tbaa !96
  %47 = call i32 @bytestream2_get_bytes_left(ptr noundef %46)
  %48 = load i32, ptr %12, align 4, !tbaa !44
  %49 = icmp slt i32 %47, %48
  br i1 %49, label %50, label %51

50:                                               ; preds = %45
  store i32 -1094995529, ptr %5, align 4
  store i32 1, ptr %14, align 4
  br label %65

51:                                               ; preds = %45
  %52 = load ptr, ptr %7, align 8, !tbaa !96
  %53 = load ptr, ptr %8, align 8, !tbaa !63
  %54 = load i32, ptr %12, align 4, !tbaa !44
  %55 = call i32 @bytestream2_get_bufferu(ptr noundef %52, ptr noundef %53, i32 noundef %54)
  br label %56

56:                                               ; preds = %51, %37
  %57 = load i32, ptr %12, align 4, !tbaa !44
  %58 = load ptr, ptr %8, align 8, !tbaa !63
  %59 = sext i32 %57 to i64
  %60 = getelementptr inbounds i8, ptr %58, i64 %59
  store ptr %60, ptr %8, align 8, !tbaa !63
  %61 = load i32, ptr %12, align 4, !tbaa !44
  %62 = load i32, ptr %13, align 4, !tbaa !44
  %63 = sub nsw i32 %62, %61
  store i32 %63, ptr %13, align 4, !tbaa !44
  br label %16, !llvm.loop !172

64:                                               ; preds = %16
  store i32 0, ptr %5, align 4
  store i32 1, ptr %14, align 4
  br label %65

65:                                               ; preds = %64, %50, %32
  call void @llvm.lifetime.end.p0(i64 4, ptr %13) #10
  call void @llvm.lifetime.end.p0(i64 4, ptr %12) #10
  call void @llvm.lifetime.end.p0(i64 4, ptr %11) #10
  call void @llvm.lifetime.end.p0(i64 4, ptr %10) #10
  %66 = load i32, ptr %5, align 4
  ret i32 %66
}

; Function Attrs: nounwind uwtable
define internal i32 @decode_8(ptr noundef %0) #1 {
  %2 = alloca i32, align 4
  %3 = alloca ptr, align 8
  %4 = alloca ptr, align 8
  %5 = alloca ptr, align 8
  %6 = alloca i64, align 8
  %7 = alloca i32, align 4
  store ptr %0, ptr %3, align 8, !tbaa !29
  call void @llvm.lifetime.start.p0(i64 8, ptr %4) #10
  %8 = load ptr, ptr %3, align 8, !tbaa !29
  %9 = getelementptr inbounds nuw %struct.SANMVideoContext, ptr %8, i32 0, i32 16
  %10 = load ptr, ptr %9, align 8, !tbaa !85
  store ptr %10, ptr %4, align 8, !tbaa !105
  call void @llvm.lifetime.start.p0(i64 8, ptr %5) #10
  call void @llvm.lifetime.start.p0(i64 8, ptr %6) #10
  %11 = load ptr, ptr %3, align 8, !tbaa !29
  %12 = getelementptr inbounds nuw %struct.SANMVideoContext, ptr %11, i32 0, i32 28
  %13 = load i64, ptr %12, align 8, !tbaa !75
  store i64 %13, ptr %6, align 8, !tbaa !112
  %14 = load ptr, ptr %3, align 8, !tbaa !29
  %15 = getelementptr inbounds nuw %struct.SANMVideoContext, ptr %14, i32 0, i32 25
  %16 = load ptr, ptr %3, align 8, !tbaa !29
  %17 = getelementptr inbounds nuw %struct.SANMVideoContext, ptr %16, i32 0, i32 26
  %18 = load i64, ptr %6, align 8, !tbaa !112
  call void @av_fast_malloc(ptr noundef %15, ptr noundef %17, i64 noundef %18)
  %19 = load ptr, ptr %3, align 8, !tbaa !29
  %20 = getelementptr inbounds nuw %struct.SANMVideoContext, ptr %19, i32 0, i32 25
  %21 = load ptr, ptr %20, align 8, !tbaa !214
  %22 = icmp ne ptr %21, null
  br i1 %22, label %27, label %23

23:                                               ; preds = %1
  %24 = load ptr, ptr %3, align 8, !tbaa !29
  %25 = getelementptr inbounds nuw %struct.SANMVideoContext, ptr %24, i32 0, i32 0
  %26 = load ptr, ptr %25, align 8, !tbaa !31
  call void (ptr, i32, ptr, ...) @av_log(ptr noundef %26, i32 noundef 16, ptr noundef @.str.30)
  store i32 -12, ptr %2, align 4
  store i32 1, ptr %7, align 4
  br label %57

27:                                               ; preds = %1
  %28 = load ptr, ptr %3, align 8, !tbaa !29
  %29 = getelementptr inbounds nuw %struct.SANMVideoContext, ptr %28, i32 0, i32 25
  %30 = load ptr, ptr %29, align 8, !tbaa !214
  store ptr %30, ptr %5, align 8, !tbaa !63
  %31 = load ptr, ptr %3, align 8, !tbaa !29
  %32 = load ptr, ptr %3, align 8, !tbaa !29
  %33 = getelementptr inbounds nuw %struct.SANMVideoContext, ptr %32, i32 0, i32 1
  %34 = load ptr, ptr %5, align 8, !tbaa !63
  %35 = load i64, ptr %6, align 8, !tbaa !112
  %36 = trunc i64 %35 to i32
  %37 = call i32 @rle_decode(ptr noundef %31, ptr noundef %33, ptr noundef %34, i32 noundef %36)
  %38 = icmp ne i32 %37, 0
  br i1 %38, label %39, label %40

39:                                               ; preds = %27
  store i32 -1094995529, ptr %2, align 4
  store i32 1, ptr %7, align 4
  br label %57

40:                                               ; preds = %27
  br label %41

41:                                               ; preds = %45, %40
  %42 = load i64, ptr %6, align 8, !tbaa !112
  %43 = add nsw i64 %42, -1
  store i64 %43, ptr %6, align 8, !tbaa !112
  %44 = icmp ne i64 %42, 0
  br i1 %44, label %45, label %56

45:                                               ; preds = %41
  %46 = load ptr, ptr %3, align 8, !tbaa !29
  %47 = getelementptr inbounds nuw %struct.SANMVideoContext, ptr %46, i32 0, i32 30
  %48 = load ptr, ptr %5, align 8, !tbaa !63
  %49 = getelementptr inbounds nuw i8, ptr %48, i32 1
  store ptr %49, ptr %5, align 8, !tbaa !63
  %50 = load i8, ptr %48, align 1, !tbaa !42
  %51 = zext i8 %50 to i64
  %52 = getelementptr inbounds nuw [256 x i16], ptr %47, i64 0, i64 %51
  %53 = load i16, ptr %52, align 2, !tbaa !101
  %54 = load ptr, ptr %4, align 8, !tbaa !105
  %55 = getelementptr inbounds nuw i16, ptr %54, i32 1
  store ptr %55, ptr %4, align 8, !tbaa !105
  store i16 %53, ptr %54, align 2, !tbaa !101
  br label %41, !llvm.loop !215

56:                                               ; preds = %41
  store i32 0, ptr %2, align 4
  store i32 1, ptr %7, align 4
  br label %57

57:                                               ; preds = %56, %39, %23
  call void @llvm.lifetime.end.p0(i64 8, ptr %6) #10
  call void @llvm.lifetime.end.p0(i64 8, ptr %5) #10
  call void @llvm.lifetime.end.p0(i64 8, ptr %4) #10
  %58 = load i32, ptr %2, align 4
  ret i32 %58
}