; Function Attrs: nounwind uwtable
define internal range(i32 -1094995529, 1) i32 @decode_8(ptr noundef %0) #1 {
  %2 = getelementptr inbounds nuw i8, ptr %0, i64 2656
  %3 = load ptr, ptr %2, align 8, !tbaa !84
  %4 = getelementptr inbounds nuw i8, ptr %0, i64 2728
  %5 = load i64, ptr %4, align 8, !tbaa !40
  %6 = getelementptr inbounds nuw i8, ptr %0, i64 2712
  %7 = getelementptr inbounds nuw i8, ptr %0, i64 2720
  tail call void @av_fast_malloc(ptr noundef nonnull %6, ptr noundef nonnull %7, i64 noundef %5) #12
  %8 = load ptr, ptr %6, align 8, !tbaa !188
  %.not = icmp eq ptr %8, null
  br i1 %.not, label %9, label %11

9:                                                ; preds = %1
  %10 = load ptr, ptr %0, align 8, !tbaa !27
  tail call void (ptr, i32, ptr, ...) @av_log(ptr noundef %10, i32 noundef 16, ptr noundef nonnull @.str.30) #12
  br label %rle_decode.exit.thread

11:                                               ; preds = %1
  %12 = getelementptr inbounds nuw i8, ptr %0, i64 8
  %13 = trunc i64 %5 to i32
  %14 = icmp sgt i32 %13, 0
  br i1 %14, label %.lr.ph.i, label %rle_decode.exit

.lr.ph.i:                                         ; preds = %11
  %15 = getelementptr inbounds nuw i8, ptr %0, i64 16
  br label %16

16:                                               ; preds = %50, %.lr.ph.i
  %.02.i = phi i32 [ %13, %.lr.ph.i ], [ %52, %50 ]
  %.0221.i = phi ptr [ %8, %.lr.ph.i ], [ %51, %50 ]
  %17 = load ptr, ptr %15, align 8, !tbaa !58
  %18 = load ptr, ptr %12, align 8, !tbaa !56
  %19 = ptrtoint ptr %17 to i64
  %20 = ptrtoint ptr %18 to i64
  %21 = sub i64 %19, %20
  %22 = icmp slt i64 %21, 1
  br i1 %22, label %23, label %24

23:                                               ; preds = %16
  store ptr %17, ptr %12, align 8, !tbaa !56
  br label %bytestream2_get_byte.exit27.i

24:                                               ; preds = %16
  %25 = getelementptr inbounds nuw i8, ptr %18, i64 1
  store ptr %25, ptr %12, align 8, !tbaa !60
  %26 = load i8, ptr %18, align 1, !tbaa !46
  %27 = zext i8 %26 to i32
  br label %bytestream2_get_byte.exit27.i

bytestream2_get_byte.exit27.i:                    ; preds = %24, %23
  %28 = phi ptr [ %17, %23 ], [ %25, %24 ]
  %.0.i26.i = phi i32 [ 0, %23 ], [ %27, %24 ]
  %29 = lshr i32 %.0.i26.i, 1
  %30 = add nuw nsw i32 %29, 1
  %.not.i = icmp samesign ult i32 %29, %.02.i
  br i1 %.not.i, label %31, label %rle_decode.exit.thread

31:                                               ; preds = %bytestream2_get_byte.exit27.i
  %32 = ptrtoint ptr %28 to i64
  %33 = sub i64 %19, %32
  %34 = trunc i64 %33 to i32
  %35 = icmp slt i32 %34, 1
  br i1 %35, label %rle_decode.exit.thread, label %36

36:                                               ; preds = %31
  %37 = and i32 %.0.i26.i, 1
  %.not24.i = icmp eq i32 %37, 0
  br i1 %.not24.i, label %45, label %38

38:                                               ; preds = %36
  %39 = icmp slt i64 %33, 1
  br i1 %39, label %40, label %41

40:                                               ; preds = %38
  store ptr %17, ptr %12, align 8, !tbaa !56
  br label %bytestream2_get_byte.exit.i

41:                                               ; preds = %38
  %42 = getelementptr inbounds nuw i8, ptr %28, i64 1
  store ptr %42, ptr %12, align 8, !tbaa !60
  %43 = load i8, ptr %28, align 1, !tbaa !46
  br label %bytestream2_get_byte.exit.i

bytestream2_get_byte.exit.i:                      ; preds = %41, %40
  %.0.i.i = phi i8 [ 0, %40 ], [ %43, %41 ]
  %44 = zext nneg i32 %30 to i64
  tail call void @llvm.memset.p0.i64(ptr noundef nonnull align 1 dereferenceable(1) %.0221.i, i8 %.0.i.i, i64 %44, i1 false)
  br label %50

45:                                               ; preds = %36
  %.not25.i = icmp samesign ult i32 %29, %34
  br i1 %.not25.i, label %46, label %rle_decode.exit.thread

46:                                               ; preds = %45
  %47 = zext nneg i32 %30 to i64
  tail call void @llvm.memcpy.p0.p0.i64(ptr noundef nonnull align 1 dereferenceable(1) %.0221.i, ptr noundef nonnull align 1 dereferenceable(1) %28, i64 %47, i1 false)
  %48 = load ptr, ptr %12, align 8, !tbaa !56
  %49 = getelementptr inbounds nuw i8, ptr %48, i64 %47
  store ptr %49, ptr %12, align 8, !tbaa !56
  br label %50

50:                                               ; preds = %46, %bytestream2_get_byte.exit.i
  %.pre-phi.i = phi i64 [ %47, %46 ], [ %44, %bytestream2_get_byte.exit.i ]
  %51 = getelementptr inbounds nuw i8, ptr %.0221.i, i64 %.pre-phi.i
  %52 = sub nsw i32 %.02.i, %30
  %53 = icmp sgt i32 %52, 0
  br i1 %53, label %16, label %rle_decode.exit, !llvm.loop !134

rle_decode.exit:                                  ; preds = %50, %11
  %.not2125 = icmp eq i64 %5, 0
  br i1 %.not2125, label %rle_decode.exit.thread, label %.lr.ph

.lr.ph:                                           ; preds = %rle_decode.exit
  %54 = getelementptr inbounds nuw i8, ptr %0, i64 2744
  br label %55

55:                                               ; preds = %.lr.ph, %55
  %.028 = phi i64 [ %5, %.lr.ph ], [ %56, %55 ]
  %.01627 = phi ptr [ %8, %.lr.ph ], [ %57, %55 ]
  %.01726 = phi ptr [ %3, %.lr.ph ], [ %62, %55 ]
  %56 = add nsw i64 %.028, -1
  %57 = getelementptr inbounds nuw i8, ptr %.01627, i64 1
  %58 = load i8, ptr %.01627, align 1, !tbaa !46
  %59 = zext i8 %58 to i64
  %60 = getelementptr inbounds nuw [256 x i16], ptr %54, i64 0, i64 %59
  %61 = load i16, ptr %60, align 2, !tbaa !65
  %62 = getelementptr inbounds nuw i8, ptr %.01726, i64 2
  store i16 %61, ptr %.01726, align 2, !tbaa !65
  %.not21 = icmp eq i64 %56, 0
  br i1 %.not21, label %rle_decode.exit.thread, label %55, !llvm.loop !189

rle_decode.exit.thread:                           ; preds = %31, %bytestream2_get_byte.exit27.i, %45, %55, %rle_decode.exit, %9
  %.018 = phi i32 [ -12, %9 ], [ 0, %rle_decode.exit ], [ 0, %55 ], [ -1094995529, %45 ], [ -1094995529, %bytestream2_get_byte.exit27.i ], [ -1094995529, %31 ]
  ret i32 %.018
}